Certificate:
    Data:
        Version: 3 (0x2)
        Serial Number: 4661 (0x1235)
        Signature Algorithm: sha256WithRSAEncryption
        Issuer: CN=www.modelCA.com, O=Model CA LTD., C=US
        Validity
            Not Before: Oct 17 07:34:38 2023 GMT
            Not After : Oct 14 07:34:38 2033 GMT
        Subject: C=US, O=Melvin Inc., CN=www.melvin2023.com
        Subject Public Key Info:
            Public Key Algorithm: rsaEncryption
                RSA Public-Key: (2048 bit)
                Modulus:
                    00:d7:7f:08:8f:23:f9:7e:97:ce:6a:74:99:b5:f8:
                    69:d4:98:58:47:05:ce:7b:4b:31:df:ba:27:84:19:
                    6d:3c:cd:5f:88:47:87:6d:87:34:3c:21:f5:fb:d4:
                    e6:47:88:e2:7c:e1:98:cd:ef:78:fd:0c:da:ec:be:
                    03:52:fa:ed:38:ef:1d:ad:0b:81:a5:e7:71:86:26:
                    d8:c4:47:df:73:bc:4c:fb:06:72:ae:fa:b6:75:d1:
                    67:fb:20:4e:5b:1c:8a:c6:01:54:26:eb:88:01:a7:
                    06:1b:97:c9:0f:77:f0:7d:64:04:6e:02:dd:32:6c:
                    56:d5:93:da:e7:ad:1a:fc:7d:64:3c:1b:bc:9b:c1:
                    57:f4:06:7e:f0:95:d4:60:b6:57:0b:bb:bc:fe:ad:
                    19:9e:bb:55:34:fe:20:17:5a:65:74:60:73:7e:a6:
                    b1:3a:bd:3c:06:2f:2b:46:f0:c0:e3:28:83:8d:e9:
                    6d:07:2c:3e:36:4f:d4:1c:dc:1a:59:bd:05:53:e0:
                    7c:d3:9e:89:20:4a:ba:fe:85:f8:6a:ef:33:f8:c6:
                    97:97:47:e2:c2:f6:86:7c:01:15:12:45:00:ae:6a:
                    b6:19:ce:79:e9:a9:b3:3c:99:95:fa:61:ed:d0:4f:
                    69:8b:ae:6d:25:60:19:a0:02:5e:a0:b5:7f:cd:ef:
                    90:f7
                Exponent: 65537 (0x10001)
        X509v3 extensions:
            X509v3 Basic Constraints: 
                CA:FALSE
            Netscape Comment: 
                OpenSSL Generated Certificate
            X509v3 Subject Key Identifier: 
                DF:75:BD:40:95:02:C6:FF:33:2A:5F:E8:8A:83:72:78:98:EC:61:7B
            X509v3 Authority Key Identifier: 
                keyid:67:BA:F3:C9:5B:2D:8A:F9:A2:15:80:0D:2B:AE:B2:5D:FA:F1:59:53

            X509v3 Subject Alternative Name: 
                DNS:www.melvin2023.com, DNS:www.melvin2023A.com, DNS:www.bank32.com, DNS:www.instagram.com
    Signature Algorithm: sha256WithRSAEncryption
         8f:53:fb:93:9e:97:c6:82:21:18:16:fe:44:85:7e:e1:ed:0a:
         56:8b:12:cc:c4:6d:dd:84:38:17:8a:23:5d:3e:77:d0:e4:5e:
         de:aa:71:1d:29:91:ce:0d:48:60:86:85:ec:ec:3a:32:df:d6:
         66:40:28:47:e3:fb:43:0c:07:d2:a9:8a:33:9c:67:d6:31:94:
         d3:6e:d3:0d:39:45:97:e6:36:53:dd:c8:42:31:43:49:03:ec:
         ca:8a:b7:fc:06:71:71:0c:b7:b2:6d:5f:26:e1:5e:b1:98:93:
         3b:65:50:2f:37:d3:40:be:52:30:3a:a6:74:94:d4:5f:cf:bd:
         51:03:6f:58:1b:21:cb:a9:6b:b5:37:fb:3e:e7:c6:1b:5c:6e:
         0f:81:61:ea:39:29:ac:bd:ba:46:35:11:10:9b:13:ce:a7:81:
         17:6d:03:76:21:ca:a2:5d:33:21:42:b1:08:89:90:03:d6:df:
         7d:1b:80:c1:fc:53:9b:fb:70:90:5a:ef:dd:af:1e:1d:56:53:
         10:ab:79:98:f1:bd:34:bb:88:7c:0d:b0:05:c3:e0:2a:6f:b6:
         8e:27:db:dc:6e:45:c4:ef:2d:b3:41:eb:1c:2a:f8:3d:5b:88:
         74:ce:4d:ff:50:6e:84:fe:a4:88:a2:8f:f0:b0:e8:a4:8a:df:
         ce:fd:6a:15:4f:43:d9:fb:ed:2e:12:10:7a:8d:6d:13:01:8c:
         1c:c4:b1:70:97:9b:1e:78:f4:07:b8:b6:1c:fb:76:5e:15:f6:
         17:8c:22:50:44:22:c2:13:5c:b4:c4:e6:85:94:d0:0e:69:de:
         17:7d:bd:bb:07:3a:a2:d7:36:d9:0c:44:d9:d6:02:3d:6a:89:
         65:dd:71:3e:a5:8f:61:ad:d3:0c:35:56:e7:c1:2a:05:41:06:
         a6:b1:ae:e0:ee:5f:7c:f7:b2:bc:23:d3:22:8b:9e:c5:13:ba:
         71:08:41:c6:35:55:1b:46:88:90:69:ed:0e:9d:ca:cf:59:81:
         10:a6:2b:b1:ee:e4:78:3c:2f:0d:f3:9e:02:76:79:c6:dc:5a:
         7d:6a:ea:80:a5:27:c5:7a:6c:6b:fe:6d:95:9f:3d:a5:d7:88:
         e8:e3:81:71:e0:8b:32:fc:c5:59:c1:ef:ee:d3:70:b4:3b:e6:
         68:c9:d6:78:68:63:c2:e5:f9:b4:95:f1:9c:ff:43:1a:02:ac:
         11:37:fd:73:a8:52:72:8e:af:32:61:b0:b9:88:39:4d:82:09:
         79:63:9a:39:f9:d8:7d:5e:09:f4:16:ef:8c:4e:54:95:88:8e:
         ff:ac:85:76:8e:d2:31:15:e6:d3:4e:67:a4:37:07:cb:49:7e:
         fa:47:15:f2:af:87:ab:64
-----BEGIN CERTIFICATE-----
MIIEzzCCAregAwIBAgICEjUwDQYJKoZIhvcNAQELBQAwPzEYMBYGA1UEAwwPd3d3
Lm1vZGVsQ0EuY29tMRYwFAYDVQQKDA1Nb2RlbCBDQSBMVEQuMQswCQYDVQQGEwJV
UzAeFw0yMzEwMTcwNzM0MzhaFw0zMzEwMTQwNzM0MzhaMEAxCzAJBgNVBAYTAlVT
MRQwEgYDVQQKDAtNZWx2aW4gSW5jLjEbMBkGA1UEAwwSd3d3Lm1lbHZpbjIwMjMu
Y29tMIIBIjANBgkqhkiG9w0BAQEFAAOCAQ8AMIIBCgKCAQEA138IjyP5fpfOanSZ
tfhp1JhYRwXOe0sx37onhBltPM1fiEeHbYc0PCH1+9TmR4jifOGYze94/Qza7L4D
UvrtOO8drQuBpedxhibYxEffc7xM+wZyrvq2ddFn+yBOWxyKxgFUJuuIAacGG5fJ
D3fwfWQEbgLdMmxW1ZPa560a/H1kPBu8m8FX9AZ+8JXUYLZXC7u8/q0ZnrtVNP4g
F1pldGBzfqaxOr08Bi8rRvDA4yiDjeltByw+Nk/UHNwaWb0FU+B8056JIEq6/oX4
au8z+MaXl0fiwvaGfAEVEkUArmq2Gc556amzPJmV+mHt0E9pi65tJWAZoAJeoLV/
ze+Q9wIDAQABo4HTMIHQMAkGA1UdEwQCMAAwLAYJYIZIAYb4QgENBB8WHU9wZW5T
U0wgR2VuZXJhdGVkIENlcnRpZmljYXRlMB0GA1UdDgQWBBTfdb1AlQLG/zMqX+iK
g3J4mOxhezAfBgNVHSMEGDAWgBRnuvPJWy2K+aIVgA0rrrJd+vFZUzBVBgNVHREE
TjBMghJ3d3cubWVsdmluMjAyMy5jb22CE3d3dy5tZWx2aW4yMDIzQS5jb22CDnd3
dy5iYW5rMzIuY29tghF3d3cuaW5zdGFncmFtLmNvbTANBgkqhkiG9w0BAQsFAAOC
AgEAj1P7k56XxoIhGBb+RIV+4e0KVosSzMRt3YQ4F4ojXT530ORe3qpxHSmRzg1I
YIaF7Ow6Mt/WZkAoR+P7QwwH0qmKM5xn1jGU027TDTlFl+Y2U93IQjFDSQPsyoq3
/AZxcQy3sm1fJuFesZiTO2VQLzfTQL5SMDqmdJTUX8+9UQNvWBshy6lrtTf7PufG
G1xuD4Fh6jkprL26RjUREJsTzqeBF20DdiHKol0zIUKxCImQA9bffRuAwfxTm/tw
kFrv3a8eHVZTEKt5mPG9NLuIfA2wBcPgKm+2jifb3G5FxO8ts0HrHCr4PVuIdM5N
/1BuhP6kiKKP8LDopIrfzv1qFU9D2fvtLhIQeo1tEwGMHMSxcJebHnj0B7i2HPt2
XhX2F4wiUEQiwhNctMTmhZTQDmneF329uwc6otc22QxE2dYCPWqJZd1xPqWPYa3T
DDVW58EqBUEGprGu4O5ffPeyvCPTIouexRO6cQhBxjVVG0aIkGntDp3Kz1mBEKYr
se7keDwvDfOeAnZ5xtxafWrqgKUnxXpsa/5tlZ89pdeI6OOBceCLMvzFWcHv7tNw
tDvmaMnWeGhjwuX5tJXxnP9DGgKsETf9c6hSco6vMmGwuYg5TYIJeWOaOfnYfV4J
9BbvjE5UlYiO/6yFdo7SMRXm005npDcHy0l++kcV8q+Hq2Q=
-----END CERTIFICATE-----
