Certificate:
    Data:
        Version: 3 (0x2)
        Serial Number: 4660 (0x1234)
        Signature Algorithm: sha256WithRSAEncryption
        Issuer: CN=www.modelCA.com, O=Model CA LTD., C=US
        Validity
            Not Before: Oct 17 06:14:31 2023 GMT
            Not After : Jul 16 06:14:31 2033 GMT
        Subject: C=US, O=Melvin Inc., CN=www.melvin2023.com
        Subject Public Key Info:
            Public Key Algorithm: rsaEncryption
                RSA Public-Key: (2048 bit)
                Modulus:
                    00:a5:19:be:71:e3:06:c4:cb:16:73:91:9d:12:ce:
                    2c:00:32:45:a1:42:27:5b:a7:6a:3a:67:f6:9b:8c:
                    99:3e:cb:e4:4c:88:bc:d8:d5:01:f9:1e:98:c0:6c:
                    85:7e:ab:2c:49:33:9a:48:c7:80:e1:7c:18:d4:82:
                    b0:e2:46:15:9f:e0:0a:5e:f3:16:e2:83:d5:1d:00:
                    77:c2:5f:a5:72:52:6b:9b:74:e8:8a:84:64:e2:ab:
                    1d:91:ed:4e:d5:e7:52:8b:7b:29:d2:c6:ea:a4:62:
                    f5:b7:0e:3b:20:84:2f:b1:ed:a5:27:77:f4:3f:df:
                    8e:b0:12:ca:32:9e:9b:7f:9b:6f:fb:96:7f:f0:14:
                    82:c5:d2:03:ec:64:43:70:f7:7f:b4:5f:b5:1d:73:
                    17:3f:e5:2e:83:93:34:e6:fe:dc:d3:8d:10:26:d5:
                    b7:79:75:ae:3a:d5:ae:ae:de:22:fa:d5:87:89:c9:
                    17:78:bd:14:ca:96:83:53:3a:c4:98:2a:de:20:3f:
                    55:73:17:06:59:17:7b:76:27:ff:9d:0e:59:db:4a:
                    0c:61:fa:ab:b2:50:29:ca:f0:13:00:55:fd:0b:02:
                    a7:be:80:9c:99:5f:30:49:24:a4:bf:80:40:98:2f:
                    3d:c1:9d:1d:34:41:29:cb:25:72:a2:cb:80:50:26:
                    1b:9f
                Exponent: 65537 (0x10001)
        X509v3 extensions:
            X509v3 Basic Constraints: 
                CA:FALSE
            Netscape Comment: 
                OpenSSL Generated Certificate
            X509v3 Subject Key Identifier: 
                83:EC:E7:F9:B5:65:1F:F7:5B:34:D6:8A:0E:6E:66:F0:E3:5D:59:23
            X509v3 Authority Key Identifier: 
                keyid:67:BA:F3:C9:5B:2D:8A:F9:A2:15:80:0D:2B:AE:B2:5D:FA:F1:59:53

            X509v3 Subject Alternative Name: 
                DNS:www.melvin2023.com, DNS:www.melvin2023A.com, DNS:www.bank32.com
    Signature Algorithm: sha256WithRSAEncryption
         91:be:f4:c1:0c:bb:2d:58:b4:07:75:dd:f5:db:de:00:bc:54:
         d2:0d:27:2f:8e:74:96:d2:a6:e5:76:e7:1c:3f:f1:5c:66:1a:
         d0:08:1e:ac:9d:7f:cf:cb:b5:b2:41:92:d2:e4:d7:e3:f5:50:
         0a:d2:81:07:e9:7e:2c:a7:e8:3c:d5:08:76:58:3b:24:a7:76:
         4b:af:ce:28:b7:c6:9d:26:2f:25:88:04:18:ce:f2:54:aa:de:
         dd:85:2b:c2:26:27:7f:04:6e:e8:08:bd:0e:c2:8c:bf:97:d0:
         7e:f2:8c:3f:f4:74:e8:da:07:b9:fd:16:58:42:fd:4c:3a:52:
         c6:55:8f:80:28:16:23:50:10:c7:f2:9c:18:1d:c1:05:06:0b:
         4d:80:0c:50:e2:e3:e5:bf:04:74:2e:52:4b:d5:04:85:df:e6:
         7f:c1:b0:2d:36:f1:40:26:f1:b6:de:b7:82:0d:51:0d:4d:e2:
         ea:3a:43:5b:99:99:5e:e0:36:c1:0e:01:95:00:31:30:40:7a:
         45:ca:ab:a2:0c:f9:05:a4:35:f6:10:28:e5:6b:27:eb:6c:b9:
         1d:59:c4:07:e6:73:83:b4:16:67:70:95:e3:2c:82:d4:29:d6:
         b1:0b:18:59:cb:90:ea:da:f2:0f:70:34:59:d8:22:f0:f6:c4:
         f4:1e:73:2b:03:aa:6b:6d:6e:fc:fa:4d:fd:9e:ce:f0:d7:9d:
         c4:e6:50:ee:75:e4:91:b2:ec:da:36:88:09:fc:c9:09:d4:b2:
         6b:d2:0c:1c:a1:f9:fd:f0:3b:1d:cc:99:42:a1:41:df:c6:51:
         00:65:a7:07:db:fb:9f:e0:0e:d8:df:59:0b:1e:6c:60:e5:83:
         85:ca:94:32:ba:b0:be:dd:31:85:64:90:24:86:c2:54:0a:d5:
         1e:27:75:cf:7c:e7:3f:a1:ad:5c:70:40:71:45:53:ac:82:6f:
         62:f5:8d:56:c4:cd:de:5c:7c:7a:d9:00:9b:bf:fd:38:c2:1f:
         c0:58:11:ec:42:e9:d2:9c:2e:93:3d:e9:e1:4c:a0:d8:1d:df:
         08:39:ff:9a:85:8f:12:a6:47:9c:bb:98:26:9c:cc:d8:81:22:
         0b:a5:fd:de:fe:e9:1c:bd:d4:49:92:91:79:df:2a:a4:14:b2:
         b4:6b:40:59:6b:3a:13:12:f3:64:86:25:ce:59:df:80:60:27:
         0b:76:72:8d:e6:04:5e:f7:69:8a:3e:9c:ad:92:b1:db:93:c7:
         ce:c8:41:06:50:9a:3a:3d:db:16:20:75:f2:15:5e:75:8b:f6:
         8c:25:ad:c6:7b:78:52:6b:4c:b1:29:fe:9a:14:db:30:9a:9b:
         7a:cb:be:36:4f:8c:24:82
-----BEGIN CERTIFICATE-----
MIIEvDCCAqSgAwIBAgICEjQwDQYJKoZIhvcNAQELBQAwPzEYMBYGA1UEAwwPd3d3
Lm1vZGVsQ0EuY29tMRYwFAYDVQQKDA1Nb2RlbCBDQSBMVEQuMQswCQYDVQQGEwJV
UzAeFw0yMzEwMTcwNjE0MzFaFw0zMzA3MTYwNjE0MzFaMEAxCzAJBgNVBAYTAlVT
MRQwEgYDVQQKDAtNZWx2aW4gSW5jLjEbMBkGA1UEAwwSd3d3Lm1lbHZpbjIwMjMu
Y29tMIIBIjANBgkqhkiG9w0BAQEFAAOCAQ8AMIIBCgKCAQEApRm+ceMGxMsWc5Gd
Es4sADJFoUInW6dqOmf2m4yZPsvkTIi82NUB+R6YwGyFfqssSTOaSMeA4XwY1IKw
4kYVn+AKXvMW4oPVHQB3wl+lclJrm3ToioRk4qsdke1O1edSi3sp0sbqpGL1tw47
IIQvse2lJ3f0P9+OsBLKMp6bf5tv+5Z/8BSCxdID7GRDcPd/tF+1HXMXP+Uug5M0
5v7c040QJtW3eXWuOtWurt4i+tWHickXeL0UypaDUzrEmCreID9VcxcGWRd7dif/
nQ5Z20oMYfqrslApyvATAFX9CwKnvoCcmV8wSSSkv4BAmC89wZ0dNEEpyyVyosuA
UCYbnwIDAQABo4HAMIG9MAkGA1UdEwQCMAAwLAYJYIZIAYb4QgENBB8WHU9wZW5T
U0wgR2VuZXJhdGVkIENlcnRpZmljYXRlMB0GA1UdDgQWBBSD7Of5tWUf91s01ooO
bmbw411ZIzAfBgNVHSMEGDAWgBRnuvPJWy2K+aIVgA0rrrJd+vFZUzBCBgNVHREE
OzA5ghJ3d3cubWVsdmluMjAyMy5jb22CE3d3dy5tZWx2aW4yMDIzQS5jb22CDnd3
dy5iYW5rMzIuY29tMA0GCSqGSIb3DQEBCwUAA4ICAQCRvvTBDLstWLQHdd31294A
vFTSDScvjnSW0qblduccP/FcZhrQCB6snX/Py7WyQZLS5Nfj9VAK0oEH6X4sp+g8
1Qh2WDskp3ZLr84ot8adJi8liAQYzvJUqt7dhSvCJid/BG7oCL0Owoy/l9B+8ow/
9HTo2ge5/RZYQv1MOlLGVY+AKBYjUBDH8pwYHcEFBgtNgAxQ4uPlvwR0LlJL1QSF
3+Z/wbAtNvFAJvG23reCDVENTeLqOkNbmZle4DbBDgGVADEwQHpFyquiDPkFpDX2
ECjlayfrbLkdWcQH5nODtBZncJXjLILUKdaxCxhZy5Dq2vIPcDRZ2CLw9sT0HnMr
A6prbW78+k39ns7w153E5lDudeSRsuzaNogJ/MkJ1LJr0gwcofn98DsdzJlCoUHf
xlEAZacH2/uf4A7Y31kLHmxg5YOFypQyurC+3TGFZJAkhsJUCtUeJ3XPfOc/oa1c
cEBxRVOsgm9i9Y1WxM3eXHx62QCbv/04wh/AWBHsQunSnC6TPenhTKDYHd8IOf+a
hY8Spkecu5gmnMzYgSILpf3e/ukcvdRJkpF53yqkFLK0a0BZazoTEvNkhiXOWd+A
YCcLdnKN5gRe92mKPpytkrHbk8fOyEEGUJo6PdsWIHXyFV51i/aMJa3Ge3hSa0yx
Kf6aFNswmpt6y742T4wkgg==
-----END CERTIFICATE-----
